target datalayout = "e-m:e-p270:32:32-p271:32:32-p272:64:64-i64:64-i128:128-f80:128-n8:16:32:64-S128"
target triple = "x86_64-pc-linux-gnu"

@.str = private unnamed_addr constant [32 x i8] c"../openssl/crypto/x509/v3_utl.c\00", align 1

; Function Attrs: nounwind uwtable
define i32 @ossl_bio_print_hex(ptr noundef %0, ptr noundef %1, i32 noundef %2) #0 {
  %4 = alloca i32, align 4
  %5 = alloca ptr, align 8
  %6 = alloca ptr, align 8
  %7 = alloca i32, align 4
  %8 = alloca i32, align 4
  %9 = alloca ptr, align 8
  %10 = alloca i32, align 4
  store ptr %0, ptr %5, align 8, !tbaa !88
  store ptr %1, ptr %6, align 8, !tbaa !3
  store i32 %2, ptr %7, align 4, !tbaa !15
  call void @llvm.lifetime.start.p0(i64 4, ptr %8) #8
  call void @llvm.lifetime.start.p0(i64 8, ptr %9) #8
  %11 = load i32, ptr %7, align 4, !tbaa !15
  %12 = icmp eq i32 %11, 0
  br i1 %12, label %13, label %14

13:                                               ; preds = %3
  store i32 1, ptr %4, align 4
  store i32 1, ptr %10, align 4
  br label %30

14:                                               ; preds = %3
  %15 = load ptr, ptr %6, align 8, !tbaa !3
  %16 = load i32, ptr %7, align 4, !tbaa !15
  %17 = sext i32 %16 to i64
  %18 = call ptr @OPENSSL_buf2hexstr(ptr noundef %15, i64 noundef %17)
  store ptr %18, ptr %9, align 8, !tbaa !3
  %19 = load ptr, ptr %9, align 8, !tbaa !3
  %20 = icmp eq ptr %19, null
  br i1 %20, label %21, label %22

21:                                               ; preds = %14
  store i32 0, ptr %4, align 4
  store i32 1, ptr %10, align 4
  br label %30

22:                                               ; preds = %14
  %23 = load ptr, ptr %5, align 8, !tbaa !88
  %24 = load ptr, ptr %9, align 8, !tbaa !3
  %25 = call i32 @BIO_puts(ptr noundef %23, ptr noundef %24)
  %26 = icmp sgt i32 %25, 0
  %27 = zext i1 %26 to i32
  store i32 %27, ptr %8, align 4, !tbaa !15
  %28 = load ptr, ptr %9, align 8, !tbaa !3
  call void @CRYPTO_free(ptr noundef %28, ptr noundef @.str, i32 noundef 1451)
  %29 = load i32, ptr %8, align 4, !tbaa !15
  store i32 %29, ptr %4, align 4
  store i32 1, ptr %10, align 4
  br label %30

30:                                               ; preds = %22, %21, %13
  call void @llvm.lifetime.end.p0(i64 8, ptr %9) #8
  call void @llvm.lifetime.end.p0(i64 4, ptr %8) #8
  %31 = load i32, ptr %4, align 4
  ret i32 %31
}