; Function Attrs: nounwind uwtable
define range(i32 0, 2) i32 @ossl_bio_print_hex(ptr noundef %0, ptr noundef %1, i32 noundef %2) local_unnamed_addr #0 {
  %4 = icmp eq i32 %2, 0
  br i1 %4, label %13, label %5

5:                                                ; preds = %3
  %6 = sext i32 %2 to i64
  %7 = tail call ptr @OPENSSL_buf2hexstr(ptr noundef %1, i64 noundef %6) #12
  %8 = icmp eq ptr %7, null
  br i1 %8, label %13, label %9

9:                                                ; preds = %5
  %10 = tail call i32 @BIO_puts(ptr noundef %0, ptr noundef nonnull %7) #12
  %11 = icmp sgt i32 %10, 0
  %12 = zext i1 %11 to i32
  tail call void @CRYPTO_free(ptr noundef nonnull %7, ptr noundef nonnull @.str, i32 noundef 1451) #12
  br label %13

13:                                               ; preds = %5, %3, %9
  %.0 = phi i32 [ %12, %9 ], [ 1, %3 ], [ 0, %5 ]
  ret i32 %.0
}